Certificate:
    Data:
        Version: 3 (0x2)
        Serial Number: 1 (0x1)
    Signature Algorithm: sha256WithRSAEncryption
        Issuer: C=ES, ST=MURCIA, O=UMU, OU=SSTT2188, CN=ca.sstt2188.org
        Validity
            Not Before: May  4 20:23:53 2020 GMT
            Not After : Jun  8 20:23:53 2021 GMT
        Subject: C=ES, ST=MURCIA, O=UMU, OU=SSTT2188, CN=www.sstt2188.org
        Subject Public Key Info:
            Public Key Algorithm: rsaEncryption
                Public-Key: (2048 bit)
                Modulus:
                    00:a6:70:4b:15:35:76:04:f8:fd:b9:e0:6a:7e:8d:
                    ee:b7:ff:89:11:dd:6b:18:49:c6:51:b0:44:59:96:
                    26:80:8f:8d:01:01:c9:c8:34:d1:ce:9a:a1:aa:1a:
                    af:15:8f:7e:00:c2:76:86:c4:20:a0:70:2f:1e:15:
                    4b:a2:30:85:ed:c5:34:30:26:8a:28:d8:e6:7d:3d:
                    ca:f9:77:de:6a:ca:d7:6c:7f:c3:10:fb:b8:90:7e:
                    be:24:ea:b2:a7:d5:68:fb:d4:82:61:4d:a2:47:2a:
                    46:72:c1:bb:6e:f7:ec:b6:23:66:5d:9e:0e:93:86:
                    c9:cc:bf:aa:03:0f:48:c0:c1:20:fb:bd:4f:4b:e4:
                    64:a4:ce:af:e1:6e:9b:f4:ef:dd:f9:ed:2d:76:57:
                    00:cd:16:89:b2:ec:42:0b:da:3e:b8:ac:ae:3c:95:
                    e6:50:82:4b:d7:11:67:b2:a5:de:d2:a9:ab:36:30:
                    30:13:a2:fa:66:33:a4:5e:6e:aa:83:c8:3e:ff:3d:
                    77:e2:c0:6f:73:86:d5:79:af:c9:4b:40:39:5e:2a:
                    c7:c2:02:40:83:a9:83:0d:cf:92:1f:38:8c:8a:eb:
                    02:e4:c7:6e:6b:41:bf:32:74:5b:70:ed:87:6d:f3:
                    20:f0:fc:b3:c3:87:0f:a8:fe:0b:fc:f7:24:13:0d:
                    fd:63
                Exponent: 65537 (0x10001)
        X509v3 extensions:
            X509v3 Basic Constraints: 
                CA:FALSE
            Netscape Comment: 
                OpenSSL Generated Certificate
            X509v3 Subject Key Identifier: 
                ED:F0:36:6C:0E:13:7B:5D:C4:2F:7C:BB:C1:00:97:F7:D8:E5:4E:76
            X509v3 Authority Key Identifier: 
                keyid:E4:0B:62:03:52:2E:F0:C3:97:AB:90:D5:C4:15:C3:C2:B6:9E:FF:71

    Signature Algorithm: sha256WithRSAEncryption
         5f:19:a1:4d:4d:59:58:60:27:b4:70:51:19:2a:3b:cc:8f:7a:
         9e:aa:04:f6:a4:3f:02:c6:33:0d:3a:b9:3d:d9:3b:85:b2:df:
         f3:db:e9:d9:41:42:c4:81:18:f2:f3:d4:d8:ec:f3:70:ce:1f:
         2e:b1:cc:15:3b:a5:7f:90:a0:e3:83:b7:02:7e:e2:8b:9f:40:
         5d:58:a8:50:4d:14:02:60:e9:41:11:21:b9:8c:0a:e5:7f:45:
         91:9d:01:23:1c:ec:d9:5c:df:c3:f3:00:7e:73:98:ce:95:57:
         5b:d0:f2:a6:62:7d:88:da:a2:b9:99:39:52:a3:b9:d7:97:9d:
         5e:a8:b6:7d:5f:85:6c:85:df:57:12:ef:e7:fc:93:82:46:0a:
         6e:d0:3d:c5:60:66:7a:7f:df:5d:46:5b:a0:48:c4:7b:cb:b9:
         d0:56:6a:e8:13:f1:9a:6b:77:e0:f0:fc:9c:8f:a4:06:83:4b:
         b3:58:cc:34:fd:85:bf:61:40:fe:3c:6a:e3:19:ec:9b:97:b8:
         2a:5f:f2:f2:51:e9:0b:92:b9:1c:ca:cd:74:ae:e6:83:73:9d:
         b4:1b:cb:ec:b1:d9:11:fe:f7:09:0d:fa:08:38:5c:3c:5d:56:
         a2:ad:c0:b5:73:dd:13:be:3d:40:d6:0e:78:59:ee:86:2b:30:
         3f:1f:89:55
-----BEGIN CERTIFICATE-----
MIIDqTCCApGgAwIBAgIBATANBgkqhkiG9w0BAQsFADBZMQswCQYDVQQGEwJFUzEP
MA0GA1UECAwGTVVSQ0lBMQwwCgYDVQQKDANVTVUxETAPBgNVBAsMCFNTVFQyMTg4
MRgwFgYDVQQDDA9jYS5zc3R0MjE4OC5vcmcwHhcNMjAwNTA0MjAyMzUzWhcNMjEw
NjA4MjAyMzUzWjBaMQswCQYDVQQGEwJFUzEPMA0GA1UECAwGTVVSQ0lBMQwwCgYD
VQQKDANVTVUxETAPBgNVBAsMCFNTVFQyMTg4MRkwFwYDVQQDDBB3d3cuc3N0dDIx
ODgub3JnMIIBIjANBgkqhkiG9w0BAQEFAAOCAQ8AMIIBCgKCAQEApnBLFTV2BPj9
ueBqfo3ut/+JEd1rGEnGUbBEWZYmgI+NAQHJyDTRzpqhqhqvFY9+AMJ2hsQgoHAv
HhVLojCF7cU0MCaKKNjmfT3K+XfeasrXbH/DEPu4kH6+JOqyp9Vo+9SCYU2iRypG
csG7bvfstiNmXZ4Ok4bJzL+qAw9IwMEg+71PS+RkpM6v4W6b9O/d+e0tdlcAzRaJ
suxCC9o+uKyuPJXmUIJL1xFnsqXe0qmrNjAwE6L6ZjOkXm6qg8g+/z134sBvc4bV
ea/JS0A5XirHwgJAg6mDDc+SHziMiusC5Mdua0G/MnRbcO2HbfMg8Pyzw4cPqP4L
/PckEw39YwIDAQABo3sweTAJBgNVHRMEAjAAMCwGCWCGSAGG+EIBDQQfFh1PcGVu
U1NMIEdlbmVyYXRlZCBDZXJ0aWZpY2F0ZTAdBgNVHQ4EFgQU7fA2bA4Te13EL3y7
wQCX99jlTnYwHwYDVR0jBBgwFoAU5AtiA1Iu8MOXq5DVxBXDwrae/3EwDQYJKoZI
hvcNAQELBQADggEBAF8ZoU1NWVhgJ7RwURkqO8yPep6qBPakPwLGMw06uT3ZO4Wy
3/Pb6dlBQsSBGPLz1Njs83DOHy6xzBU7pX+QoOODtwJ+4oufQF1YqFBNFAJg6UER
IbmMCuV/RZGdASMc7Nlc38PzAH5zmM6VV1vQ8qZifYjaormZOVKjudeXnV6otn1f
hWyF31cS7+f8k4JGCm7QPcVgZnp/311GW6BIxHvLudBWaugT8Zprd+Dw/JyPpAaD
S7NYzDT9hb9hQP48auMZ7JuXuCpf8vJR6QuSuRzKzXSu5oNznbQby+yx2RH+9wkN
+gg4XDxdVqKtwLVz3RO+PUDWDnhZ7oYrMD8fiVU=
-----END CERTIFICATE-----
