Certificate:
    Data:
        Version: 3 (0x2)
        Serial Number: 6 (0x6)
    Signature Algorithm: sha256WithRSAEncryption
        Issuer: C=ES, ST=MURCIA, O=UMU, OU=SSTT2188, CN=ca.sstt2188.org
        Validity
            Not Before: May  7 08:33:34 2020 GMT
            Not After : Jun 11 08:33:34 2021 GMT
        Subject: C=ES, ST=MURCIA, O=UMU, OU=SSTT2188, CN=diego29522188
        Subject Public Key Info:
            Public Key Algorithm: rsaEncryption
                Public-Key: (2048 bit)
                Modulus:
                    00:cf:e4:a0:27:02:8f:24:b6:12:b1:1a:3e:7a:54:
                    81:38:a3:18:b5:fd:f8:20:95:ff:2e:8e:94:4d:7a:
                    16:33:ae:8f:04:52:8b:8f:da:8a:31:ba:d5:78:98:
                    79:10:3b:bc:9a:36:5e:24:e6:8a:78:28:27:43:54:
                    e2:74:ff:bf:28:69:03:e0:1c:05:1b:6a:ae:a4:af:
                    79:e4:ba:e4:88:f7:cd:2c:30:47:e3:82:d4:3b:02:
                    8a:eb:c3:8a:a7:7d:e3:fa:76:ec:23:27:8e:6e:08:
                    94:48:7e:81:91:46:f8:40:71:cb:0e:b1:19:8e:dd:
                    2c:c5:b4:1a:33:89:68:1a:f5:37:2f:29:eb:d7:f5:
                    5a:71:ec:dd:19:6e:60:72:b6:41:48:2a:dd:f6:ff:
                    9b:70:17:d3:cd:6a:42:b1:23:94:d0:6d:8f:77:a1:
                    ba:d4:a1:6e:e0:3e:65:e4:0a:85:6c:1f:e8:ba:c9:
                    0b:01:25:33:9e:89:f7:f3:d6:d3:5f:47:f3:07:58:
                    ba:fa:39:9a:67:8c:44:85:9b:1e:71:26:f2:44:87:
                    8b:83:00:1e:6b:06:2b:29:92:6b:09:8d:e0:e6:04:
                    ed:f1:b3:bd:38:93:ad:12:56:ca:16:9a:99:67:06:
                    d9:a2:d8:ff:00:45:bb:e7:5b:79:4c:a6:aa:eb:9d:
                    e0:c7
                Exponent: 65537 (0x10001)
        X509v3 extensions:
            X509v3 Basic Constraints: 
                CA:FALSE
            Netscape Comment: 
                OpenSSL Generated Certificate
            X509v3 Subject Key Identifier: 
                0F:3A:CB:94:24:84:8D:69:EF:23:69:7F:BE:D0:70:CF:B9:4A:DD:1D
            X509v3 Authority Key Identifier: 
                keyid:E4:0B:62:03:52:2E:F0:C3:97:AB:90:D5:C4:15:C3:C2:B6:9E:FF:71

    Signature Algorithm: sha256WithRSAEncryption
         19:87:ae:86:12:fe:c4:02:38:ba:b1:f2:88:ad:fc:cb:37:98:
         73:0c:4a:e6:4d:6a:4d:ae:8c:46:f1:76:2b:75:5f:d8:a9:c8:
         03:0d:56:d3:55:c8:32:86:21:66:53:b1:c6:e2:0c:aa:ce:81:
         3f:d8:48:a8:23:4c:48:2c:e5:d9:a5:92:be:97:59:b6:29:ec:
         48:8f:9e:f2:d9:c6:43:09:ea:49:23:12:7c:df:4c:f2:46:ec:
         63:ed:cb:53:ee:4a:1e:db:71:ad:3e:9f:01:d7:c5:36:17:11:
         4e:1c:e8:f1:4c:ad:d1:05:cc:42:2e:83:9e:3c:15:b2:c4:46:
         04:7d:55:3f:bd:af:7b:3c:46:c3:91:30:f1:78:6c:dc:12:77:
         2c:66:19:a5:5b:0f:17:08:28:ac:a3:cc:df:3a:c0:ea:d1:f8:
         df:ec:d3:55:86:b3:9e:63:a4:71:9a:34:9b:46:24:07:ac:1d:
         ee:e9:d5:fd:8b:e9:c7:8a:a2:41:ac:ee:18:61:e6:87:91:34:
         3a:b1:48:c8:3b:ec:76:57:26:3b:2d:36:12:74:11:5c:9f:9f:
         f1:e5:c1:6a:65:70:30:8d:81:e1:09:30:d1:5b:84:f6:1e:e5:
         bf:e7:25:4b:f4:c8:ea:f5:22:41:fd:e5:4a:7e:50:7f:45:24:
         7d:1f:58:56
-----BEGIN CERTIFICATE-----
MIIDpjCCAo6gAwIBAgIBBjANBgkqhkiG9w0BAQsFADBZMQswCQYDVQQGEwJFUzEP
MA0GA1UECAwGTVVSQ0lBMQwwCgYDVQQKDANVTVUxETAPBgNVBAsMCFNTVFQyMTg4
MRgwFgYDVQQDDA9jYS5zc3R0MjE4OC5vcmcwHhcNMjAwNTA3MDgzMzM0WhcNMjEw
NjExMDgzMzM0WjBXMQswCQYDVQQGEwJFUzEPMA0GA1UECAwGTVVSQ0lBMQwwCgYD
VQQKDANVTVUxETAPBgNVBAsMCFNTVFQyMTg4MRYwFAYDVQQDDA1kaWVnbzI5NTIy
MTg4MIIBIjANBgkqhkiG9w0BAQEFAAOCAQ8AMIIBCgKCAQEAz+SgJwKPJLYSsRo+
elSBOKMYtf34IJX/Lo6UTXoWM66PBFKLj9qKMbrVeJh5EDu8mjZeJOaKeCgnQ1Ti
dP+/KGkD4BwFG2qupK955LrkiPfNLDBH44LUOwKK68OKp33j+nbsIyeObgiUSH6B
kUb4QHHLDrEZjt0sxbQaM4loGvU3Lynr1/VacezdGW5gcrZBSCrd9v+bcBfTzWpC
sSOU0G2Pd6G61KFu4D5l5AqFbB/ouskLASUznon389bTX0fzB1i6+jmaZ4xEhZse
cSbyRIeLgwAeawYrKZJrCY3g5gTt8bO9OJOtElbKFpqZZwbZotj/AEW751t5TKaq
653gxwIDAQABo3sweTAJBgNVHRMEAjAAMCwGCWCGSAGG+EIBDQQfFh1PcGVuU1NM
IEdlbmVyYXRlZCBDZXJ0aWZpY2F0ZTAdBgNVHQ4EFgQUDzrLlCSEjWnvI2l/vtBw
z7lK3R0wHwYDVR0jBBgwFoAU5AtiA1Iu8MOXq5DVxBXDwrae/3EwDQYJKoZIhvcN
AQELBQADggEBABmHroYS/sQCOLqx8oit/Ms3mHMMSuZNak2ujEbxdit1X9ipyAMN
VtNVyDKGIWZTscbiDKrOgT/YSKgjTEgs5dmlkr6XWbYp7EiPnvLZxkMJ6kkjEnzf
TPJG7GPty1PuSh7bca0+nwHXxTYXEU4c6PFMrdEFzEIug548FbLERgR9VT+9r3s8
RsORMPF4bNwSdyxmGaVbDxcIKKyjzN86wOrR+N/s01WGs55jpHGaNJtGJAesHe7p
1f2L6ceKokGs7hhh5oeRNDqxSMg77HZXJjstNhJ0EVyfn/HlwWplcDCNgeEJMNFb
hPYe5b/nJUv0yOr1IkH95Up+UH9FJH0fWFY=
-----END CERTIFICATE-----
